; Function Attrs: mustprogress uwtable
define hidden noundef zeroext i1 @_ZN4cvc58internal9ProofNode8isClosedEv(ptr noundef nonnull align 8 dereferenceable(65) %0) local_unnamed_addr #3 align 2 personality ptr @__gxx_personality_v0 {
  %2 = alloca %"class.std::vector.0", align 8
  call void @llvm.lifetime.start.p0(i64 24, ptr nonnull %2) #23
  call void @llvm.memset.p0.i64(ptr noundef nonnull align 8 dereferenceable(24) %2, i8 0, i64 24, i1 false)
  invoke void @_ZN4cvc58internal4expr18getFreeAssumptionsEPNS0_9ProofNodeERSt6vectorINS0_12NodeTemplateILb1EEESaIS6_EE(ptr noundef nonnull %0, ptr noundef nonnull align 8 dereferenceable(24) %2)
          to label %3 unwind label %29

3:                                                ; preds = %1
  %4 = load ptr, ptr %2, align 8, !tbaa !48
  %5 = getelementptr inbounds nuw i8, ptr %2, i64 8
  %6 = load ptr, ptr %5, align 8, !tbaa !48
  %7 = icmp eq ptr %4, %6
  br i1 %7, label %_ZSt8_DestroyIPN4cvc58internal12NodeTemplateILb1EEES3_EvT_S5_RSaIT0_E.exit.i, label %.lr.ph.i.i.i.i

.lr.ph.i.i.i.i:                                   ; preds = %3, %_ZSt8_DestroyIN4cvc58internal12NodeTemplateILb1EEEEvPT_.exit.i.i.i.i
  %.05.i.i.i.i = phi ptr [ %21, %_ZSt8_DestroyIN4cvc58internal12NodeTemplateILb1EEEEvPT_.exit.i.i.i.i ], [ %4, %3 ]
  %8 = load ptr, ptr %.05.i.i.i.i, align 8, !tbaa !9
  %9 = load i64, ptr %8, align 8
  %10 = and i64 %9, 1152920405095219200
  %.not.i.i.i.i.i.i.i = icmp eq i64 %10, 1152920405095219200
  br i1 %.not.i.i.i.i.i.i.i, label %_ZSt8_DestroyIN4cvc58internal12NodeTemplateILb1EEEEvPT_.exit.i.i.i.i, label %11, !prof !26

11:                                               ; preds = %.lr.ph.i.i.i.i
  %12 = add i64 %9, 1152920405095219200
  %13 = and i64 %12, 1152920405095219200
  %14 = and i64 %9, -1152920405095219201
  %15 = or disjoint i64 %13, %14
  store i64 %15, ptr %8, align 8
  %16 = icmp eq i64 %13, 0
  br i1 %16, label %17, label %_ZSt8_DestroyIN4cvc58internal12NodeTemplateILb1EEEEvPT_.exit.i.i.i.i, !prof !26

17:                                               ; preds = %11
  invoke void @_ZN4cvc58internal4expr9NodeValue15markForDeletionEv(ptr noundef nonnull align 8 dereferenceable(24) %8)
          to label %_ZSt8_DestroyIN4cvc58internal12NodeTemplateILb1EEEEvPT_.exit.i.i.i.i unwind label %18

18:                                               ; preds = %17
  %19 = landingpad { ptr, i32 }
          catch ptr null
  %20 = extractvalue { ptr, i32 } %19, 0
  call void @__clang_call_terminate(ptr %20) #25
  unreachable

_ZSt8_DestroyIN4cvc58internal12NodeTemplateILb1EEEEvPT_.exit.i.i.i.i: ; preds = %17, %11, %.lr.ph.i.i.i.i
  %21 = getelementptr inbounds nuw i8, ptr %.05.i.i.i.i, i64 8
  %.not.i.i.i.i = icmp eq ptr %21, %6
  br i1 %.not.i.i.i.i, label %_ZSt8_DestroyIPN4cvc58internal12NodeTemplateILb1EEES3_EvT_S5_RSaIT0_E.exitthread-pre-split.i, label %.lr.ph.i.i.i.i, !llvm.loop !29

_ZSt8_DestroyIPN4cvc58internal12NodeTemplateILb1EEES3_EvT_S5_RSaIT0_E.exitthread-pre-split.i: ; preds = %_ZSt8_DestroyIN4cvc58internal12NodeTemplateILb1EEEEvPT_.exit.i.i.i.i
  %.pr.i = load ptr, ptr %2, align 8, !tbaa !27
  br label %_ZSt8_DestroyIPN4cvc58internal12NodeTemplateILb1EEES3_EvT_S5_RSaIT0_E.exit.i

_ZSt8_DestroyIPN4cvc58internal12NodeTemplateILb1EEES3_EvT_S5_RSaIT0_E.exit.i: ; preds = %_ZSt8_DestroyIPN4cvc58internal12NodeTemplateILb1EEES3_EvT_S5_RSaIT0_E.exitthread-pre-split.i, %3
  %22 = phi ptr [ %.pr.i, %_ZSt8_DestroyIPN4cvc58internal12NodeTemplateILb1EEES3_EvT_S5_RSaIT0_E.exitthread-pre-split.i ], [ %4, %3 ]
  %.not.i.i.i = icmp eq ptr %22, null
  br i1 %.not.i.i.i, label %_ZNSt6vectorIN4cvc58internal12NodeTemplateILb1EEESaIS3_EED2Ev.exit, label %23

23:                                               ; preds = %_ZSt8_DestroyIPN4cvc58internal12NodeTemplateILb1EEES3_EvT_S5_RSaIT0_E.exit.i
  %24 = getelementptr inbounds nuw i8, ptr %2, i64 16
  %25 = load ptr, ptr %24, align 8, !tbaa !31
  %26 = ptrtoint ptr %25 to i64
  %27 = ptrtoint ptr %22 to i64
  %28 = sub i64 %26, %27
  call void @_ZdlPvm(ptr noundef nonnull %22, i64 noundef %28) #26
  br label %_ZNSt6vectorIN4cvc58internal12NodeTemplateILb1EEESaIS3_EED2Ev.exit

_ZNSt6vectorIN4cvc58internal12NodeTemplateILb1EEESaIS3_EED2Ev.exit: ; preds = %_ZSt8_DestroyIPN4cvc58internal12NodeTemplateILb1EEES3_EvT_S5_RSaIT0_E.exit.i, %23
  call void @llvm.lifetime.end.p0(i64 24, ptr nonnull %2) #23
  ret i1 %7

29:                                               ; preds = %1
  %30 = landingpad { ptr, i32 }
          cleanup
  call void @_ZNSt6vectorIN4cvc58internal12NodeTemplateILb1EEESaIS3_EED2Ev(ptr noundef nonnull align 8 dereferenceable(24) %2) #23
  call void @llvm.lifetime.end.p0(i64 24, ptr nonnull %2) #23
  resume { ptr, i32 } %30
}